target datalayout = "e-m:e-p270:32:32-p271:32:32-p272:64:64-i64:64-i128:128-f80:128-n8:16:32:64-S128"
target triple = "x86_64-pc-linux-gnu"

@.str.3 = private unnamed_addr constant [8 x i8] c"Rar!\1A\07\00\00", align 1
@.str.4 = private unnamed_addr constant [5 x i8] c"\7FELF\00", align 1

; Function Attrs: nounwind uwtable
define internal i32 @archive_read_format_rar_bid(ptr noundef %0, i32 noundef %1) #0 {
  %3 = alloca i32, align 4
  %4 = alloca ptr, align 8
  %5 = alloca i32, align 4
  %6 = alloca ptr, align 8
  %7 = alloca i64, align 8
  %8 = alloca i64, align 8
  %9 = alloca i64, align 8
  %10 = alloca ptr, align 8
  store ptr %0, ptr %4, align 8
  store i32 %1, ptr %5, align 4
  %11 = load i32, ptr %5, align 4
  %12 = icmp sgt i32 %11, 30
  br i1 %12, label %13, label %14

13:                                               ; preds = %2
  store i32 -1, ptr %3, align 4
  br label %88

14:                                               ; preds = %2
  %15 = load ptr, ptr %4, align 8
  %16 = call ptr @__archive_read_ahead(ptr noundef %15, i64 noundef 7, ptr noundef null)
  store ptr %16, ptr %6, align 8
  %17 = icmp eq ptr %16, null
  br i1 %17, label %18, label %19

18:                                               ; preds = %14
  store i32 -1, ptr %3, align 4
  br label %88

19:                                               ; preds = %14
  %20 = load ptr, ptr %6, align 8
  %21 = call i32 @memcmp(ptr noundef %20, ptr noundef @.str.3, i64 noundef 7) #13
  %22 = icmp eq i32 %21, 0
  br i1 %22, label %23, label %24

23:                                               ; preds = %19
  store i32 30, ptr %3, align 4
  br label %88

24:                                               ; preds = %19
  %25 = load ptr, ptr %6, align 8
  %26 = getelementptr inbounds i8, ptr %25, i64 0
  %27 = load i8, ptr %26, align 1
  %28 = sext i8 %27 to i32
  %29 = icmp eq i32 %28, 77
  br i1 %29, label %30, label %36

30:                                               ; preds = %24
  %31 = load ptr, ptr %6, align 8
  %32 = getelementptr inbounds i8, ptr %31, i64 1
  %33 = load i8, ptr %32, align 1
  %34 = sext i8 %33 to i32
  %35 = icmp eq i32 %34, 90
  br i1 %35, label %40, label %36

36:                                               ; preds = %30, %24
  %37 = load ptr, ptr %6, align 8
  %38 = call i32 @memcmp(ptr noundef %37, ptr noundef @.str.4, i64 noundef 4) #13
  %39 = icmp eq i32 %38, 0
  br i1 %39, label %40, label %87

40:                                               ; preds = %36, %30
  store i64 65536, ptr %7, align 8
  store i64 4096, ptr %8, align 8
  br label %41

41:                                               ; preds = %80, %60, %40
  %42 = load i64, ptr %7, align 8
  %43 = load i64, ptr %8, align 8
  %44 = add nsw i64 %42, %43
  %45 = icmp sle i64 %44, 131072
  br i1 %45, label %46, label %86

46:                                               ; preds = %41
  %47 = load ptr, ptr %4, align 8
  %48 = load i64, ptr %7, align 8
  %49 = load i64, ptr %8, align 8
  %50 = add nsw i64 %48, %49
  %51 = call ptr @__archive_read_ahead(ptr noundef %47, i64 noundef %50, ptr noundef %9)
  store ptr %51, ptr %10, align 8
  %52 = load ptr, ptr %10, align 8
  %53 = icmp eq ptr %52, null
  br i1 %53, label %54, label %61

54:                                               ; preds = %46
  %55 = load i64, ptr %8, align 8
  %56 = ashr i64 %55, 1
  store i64 %56, ptr %8, align 8
  %57 = load i64, ptr %8, align 8
  %58 = icmp slt i64 %57, 64
  br i1 %58, label %59, label %60

59:                                               ; preds = %54
  store i32 0, ptr %3, align 4
  br label %88

60:                                               ; preds = %54
  br label %41, !llvm.loop !5

61:                                               ; preds = %46
  %62 = load ptr, ptr %10, align 8
  %63 = load i64, ptr %7, align 8
  %64 = getelementptr inbounds i8, ptr %62, i64 %63
  store ptr %64, ptr %6, align 8
  br label %65

65:                                               ; preds = %77, %61
  %66 = load ptr, ptr %6, align 8
  %67 = getelementptr inbounds i8, ptr %66, i64 7
  %68 = load ptr, ptr %10, align 8
  %69 = load i64, ptr %9, align 8
  %70 = getelementptr inbounds i8, ptr %68, i64 %69
  %71 = icmp ult ptr %67, %70
  br i1 %71, label %72, label %80

72:                                               ; preds = %65
  %73 = load ptr, ptr %6, align 8
  %74 = call i32 @memcmp(ptr noundef %73, ptr noundef @.str.3, i64 noundef 7) #13
  %75 = icmp eq i32 %74, 0
  br i1 %75, label %76, label %77

76:                                               ; preds = %72
  store i32 30, ptr %3, align 4
  br label %88

77:                                               ; preds = %72
  %78 = load ptr, ptr %6, align 8
  %79 = getelementptr inbounds i8, ptr %78, i64 16
  store ptr %79, ptr %6, align 8
  br label %65, !llvm.loop !7

80:                                               ; preds = %65
  %81 = load ptr, ptr %6, align 8
  %82 = load ptr, ptr %10, align 8
  %83 = ptrtoint ptr %81 to i64
  %84 = ptrtoint ptr %82 to i64
  %85 = sub i64 %83, %84
  store i64 %85, ptr %7, align 8
  br label %41, !llvm.loop !5

86:                                               ; preds = %41
  br label %87

87:                                               ; preds = %86, %36
  store i32 0, ptr %3, align 4
  br label %88

88:                                               ; preds = %87, %76, %59, %23, %18, %13
  %89 = load i32, ptr %3, align 4
  ret i32 %89
}