; Function Attrs: nounwind uwtable
define internal range(i32 -1, 31) i32 @archive_read_format_rar_bid(ptr noundef %0, i32 noundef %1) #0 {
  %3 = alloca i64, align 8
  %4 = icmp sgt i32 %1, 30
  br i1 %4, label %.loopexit, label %5

5:                                                ; preds = %2
  %6 = tail call ptr @__archive_read_ahead(ptr noundef %0, i64 noundef 7, ptr noundef null) #19
  %7 = icmp eq ptr %6, null
  br i1 %7, label %.loopexit, label %8

8:                                                ; preds = %5
  %bcmp = tail call i32 @bcmp(ptr noundef nonnull dereferenceable(7) %6, ptr noundef nonnull dereferenceable(7) @.str.3, i64 7)
  %9 = icmp eq i32 %bcmp, 0
  br i1 %9, label %.loopexit, label %10

10:                                               ; preds = %8
  %11 = load i8, ptr %6, align 1
  %12 = icmp eq i8 %11, 77
  br i1 %12, label %13, label %17

13:                                               ; preds = %10
  %14 = getelementptr inbounds nuw i8, ptr %6, i64 1
  %15 = load i8, ptr %14, align 1
  %16 = icmp eq i8 %15, 90
  br i1 %16, label %.outer.preheader, label %17

17:                                               ; preds = %13, %10
  %bcmp29 = tail call i32 @bcmp(ptr noundef nonnull dereferenceable(4) %6, ptr noundef nonnull dereferenceable(4) @.str.4, i64 4)
  %18 = icmp eq i32 %bcmp29, 0
  br i1 %18, label %.outer.preheader, label %.loopexit

.outer.preheader:                                 ; preds = %17, %13
  br label %.outer

.outer:                                           ; preds = %.outer.preheader, %._crit_edge
  %.023.ph = phi i64 [ %41, %._crit_edge ], [ 65536, %.outer.preheader ]
  %.022.ph = phi i64 [ %.022, %._crit_edge ], [ 4096, %.outer.preheader ]
  br label %19

19:                                               ; preds = %.outer, %25
  %.022 = phi i64 [ %26, %25 ], [ %.022.ph, %.outer ]
  %20 = add nsw i64 %.022, %.023.ph
  %21 = icmp slt i64 %20, 131073
  br i1 %21, label %22, label %.loopexit

22:                                               ; preds = %19
  %23 = call ptr @__archive_read_ahead(ptr noundef %0, i64 noundef %20, ptr noundef nonnull %3) #19
  %24 = icmp eq ptr %23, null
  br i1 %24, label %25, label %28

25:                                               ; preds = %22
  %26 = lshr i64 %.022, 1
  %27 = icmp samesign ult i64 %.022, 128
  br i1 %27, label %.loopexit, label %19, !llvm.loop !5

28:                                               ; preds = %22
  %29 = getelementptr inbounds i8, ptr %23, i64 %.023.ph
  %30 = load i64, ptr %3, align 8
  %31 = getelementptr inbounds i8, ptr %23, i64 %30
  %32 = getelementptr inbounds nuw i8, ptr %29, i64 7
  %33 = icmp ult ptr %32, %31
  br i1 %33, label %.lr.ph, label %._crit_edge

.lr.ph:                                           ; preds = %28, %35
  %.02434 = phi ptr [ %36, %35 ], [ %29, %28 ]
  %bcmp30 = call i32 @bcmp(ptr noundef nonnull dereferenceable(7) %.02434, ptr noundef nonnull dereferenceable(7) @.str.3, i64 7)
  %34 = icmp eq i32 %bcmp30, 0
  br i1 %34, label %.loopexit, label %35

35:                                               ; preds = %.lr.ph
  %36 = getelementptr inbounds nuw i8, ptr %.02434, i64 16
  %37 = getelementptr inbounds nuw i8, ptr %.02434, i64 23
  %38 = icmp ult ptr %37, %31
  br i1 %38, label %.lr.ph, label %._crit_edge, !llvm.loop !7

._crit_edge:                                      ; preds = %35, %28
  %.024.lcssa = phi ptr [ %29, %28 ], [ %36, %35 ]
  %39 = ptrtoint ptr %.024.lcssa to i64
  %40 = ptrtoint ptr %23 to i64
  %41 = sub i64 %39, %40
  br label %.outer, !llvm.loop !5

.loopexit:                                        ; preds = %19, %25, %.lr.ph, %17, %8, %5, %2
  %.0 = phi i32 [ -1, %2 ], [ -1, %5 ], [ 30, %8 ], [ 0, %17 ], [ 30, %.lr.ph ], [ 0, %25 ], [ 0, %19 ]
  ret i32 %.0
}